target datalayout = "e-m:e-p270:32:32-p271:32:32-p272:64:64-i64:64-i128:128-f80:128-n8:16:32:64-S128"
target triple = "x86_64-pc-linux-gnu"

%struct.Node = type { i32 }
%struct.FetchStmt = type { i32, i32, i64, ptr, i8 }
%struct.QueryCompletion = type { i32, i64 }
%struct.CallStmt = type { i32, ptr, ptr, ptr }
%struct.FuncExpr = type { %struct.Expr, i32, i32, i8, i8, i32, i32, i32, ptr, i32 }
%struct.Expr = type { i32 }
%struct.PortalData = type { ptr, ptr, ptr, ptr, ptr, i32, i32, i32, ptr, i32, %struct.QueryCompletion, ptr, ptr, ptr, ptr, i32, i32, i32, i8, i8, ptr, ptr, ptr, ptr, ptr, ptr, ptr, i8, i8, i64, i64, i8 }
%struct.ExecuteStmt = type { i32, ptr, ptr }
%struct.PreparedStatement = type { [64 x i8], ptr, i8, i64 }
%struct.CachedPlanSource = type { i32, ptr, ptr, i32, ptr, i32, ptr, ptr, i32, i8, ptr, ptr, ptr, ptr, ptr, ptr, ptr, i32, i8, i8, ptr, i8, i8, i8, i8, i32, %struct.dlist_node, double, double, i64, i64 }
%struct.dlist_node = type { ptr, ptr }

; Function Attrs: nounwind uwtable
define dso_local zeroext i1 @UtilityReturnsTuples(ptr noundef %0) #0 {
  %2 = alloca i1, align 1
  %3 = alloca ptr, align 8
  %4 = alloca ptr, align 8
  %5 = alloca ptr, align 8
  %6 = alloca ptr, align 8
  %7 = alloca i32, align 4
  %8 = alloca ptr, align 8
  %9 = alloca ptr, align 8
  store ptr %0, ptr %3, align 8
  %10 = load ptr, ptr %3, align 8
  %11 = getelementptr inbounds nuw %struct.Node, ptr %10, i32 0, i32 0
  %12 = load i32, ptr %11, align 4
  switch i32 %12, label %65 [
    i32 212, label %13
    i32 202, label %21
    i32 252, label %44
    i32 240, label %63
    i32 158, label %64
  ]

13:                                               ; preds = %1
  call void @llvm.lifetime.start.p0(i64 8, ptr %4) #11
  %14 = load ptr, ptr %3, align 8
  store ptr %14, ptr %4, align 8
  %15 = load ptr, ptr %4, align 8
  %16 = getelementptr inbounds nuw %struct.CallStmt, ptr %15, i32 0, i32 2
  %17 = load ptr, ptr %16, align 8
  %18 = getelementptr inbounds nuw %struct.FuncExpr, ptr %17, i32 0, i32 2
  %19 = load i32, ptr %18, align 8
  %20 = icmp eq i32 %19, 2249
  store i1 %20, ptr %2, align 1
  call void @llvm.lifetime.end.p0(i64 8, ptr %4) #11
  br label %66

21:                                               ; preds = %1
  call void @llvm.lifetime.start.p0(i64 8, ptr %5) #11
  %22 = load ptr, ptr %3, align 8
  store ptr %22, ptr %5, align 8
  call void @llvm.lifetime.start.p0(i64 8, ptr %6) #11
  %23 = load ptr, ptr %5, align 8
  %24 = getelementptr inbounds nuw %struct.FetchStmt, ptr %23, i32 0, i32 4
  %25 = load i8, ptr %24, align 8, !range !4, !noundef !5
  %26 = trunc i8 %25 to i1
  br i1 %26, label %27, label %28

27:                                               ; preds = %21
  store i1 false, ptr %2, align 1
  store i32 1, ptr %7, align 4
  br label %43

28:                                               ; preds = %21
  %29 = load ptr, ptr %5, align 8
  %30 = getelementptr inbounds nuw %struct.FetchStmt, ptr %29, i32 0, i32 3
  %31 = load ptr, ptr %30, align 8
  %32 = call ptr @GetPortalByName(ptr noundef %31)
  store ptr %32, ptr %6, align 8
  %33 = load ptr, ptr %6, align 8
  %34 = icmp ne ptr %33, null
  br i1 %34, label %36, label %35

35:                                               ; preds = %28
  store i1 false, ptr %2, align 1
  store i32 1, ptr %7, align 4
  br label %43

36:                                               ; preds = %28
  %37 = load ptr, ptr %6, align 8
  %38 = getelementptr inbounds nuw %struct.PortalData, ptr %37, i32 0, i32 21
  %39 = load ptr, ptr %38, align 8
  %40 = icmp ne ptr %39, null
  %41 = select i1 %40, i32 1, i32 0
  %42 = icmp ne i32 %41, 0
  store i1 %42, ptr %2, align 1
  store i32 1, ptr %7, align 4
  br label %43

43:                                               ; preds = %36, %35, %27
  call void @llvm.lifetime.end.p0(i64 8, ptr %6) #11
  call void @llvm.lifetime.end.p0(i64 8, ptr %5) #11
  br label %66

44:                                               ; preds = %1
  call void @llvm.lifetime.start.p0(i64 8, ptr %8) #11
  %45 = load ptr, ptr %3, align 8
  store ptr %45, ptr %8, align 8
  call void @llvm.lifetime.start.p0(i64 8, ptr %9) #11
  %46 = load ptr, ptr %8, align 8
  %47 = getelementptr inbounds nuw %struct.ExecuteStmt, ptr %46, i32 0, i32 1
  %48 = load ptr, ptr %47, align 8
  %49 = call ptr @FetchPreparedStatement(ptr noundef %48, i1 noundef zeroext false)
  store ptr %49, ptr %9, align 8
  %50 = load ptr, ptr %9, align 8
  %51 = icmp ne ptr %50, null
  br i1 %51, label %53, label %52

52:                                               ; preds = %44
  store i1 false, ptr %2, align 1
  store i32 1, ptr %7, align 4
  br label %62

53:                                               ; preds = %44
  %54 = load ptr, ptr %9, align 8
  %55 = getelementptr inbounds nuw %struct.PreparedStatement, ptr %54, i32 0, i32 1
  %56 = load ptr, ptr %55, align 8
  %57 = getelementptr inbounds nuw %struct.CachedPlanSource, ptr %56, i32 0, i32 10
  %58 = load ptr, ptr %57, align 8
  %59 = icmp ne ptr %58, null
  br i1 %59, label %60, label %61

60:                                               ; preds = %53
  store i1 true, ptr %2, align 1
  store i32 1, ptr %7, align 4
  br label %62

61:                                               ; preds = %53
  store i1 false, ptr %2, align 1
  store i32 1, ptr %7, align 4
  br label %62

62:                                               ; preds = %61, %60, %52
  call void @llvm.lifetime.end.p0(i64 8, ptr %9) #11
  call void @llvm.lifetime.end.p0(i64 8, ptr %8) #11
  br label %66

63:                                               ; preds = %1
  store i1 true, ptr %2, align 1
  br label %66

64:                                               ; preds = %1
  store i1 true, ptr %2, align 1
  br label %66

65:                                               ; preds = %1
  store i1 false, ptr %2, align 1
  br label %66

66:                                               ; preds = %65, %64, %63, %62, %43, %13
  %67 = load i1, ptr %2, align 1
  ret i1 %67
}