; Function Attrs: nounwind uwtable
define dso_local zeroext i1 @UtilityReturnsTuples(ptr noundef readonly captures(none) %0) local_unnamed_addr #0 {
  %2 = load i32, ptr %0, align 4
  switch i32 %2, label %30 [
    i32 212, label %3
    i32 202, label %9
    i32 252, label %21
    i32 240, label %31
    i32 158, label %31
  ]

3:                                                ; preds = %1
  %4 = getelementptr inbounds nuw i8, ptr %0, i64 16
  %5 = load ptr, ptr %4, align 8
  %6 = getelementptr inbounds nuw i8, ptr %5, i64 8
  %7 = load i32, ptr %6, align 8
  %8 = icmp eq i32 %7, 2249
  br label %31

9:                                                ; preds = %1
  %10 = getelementptr inbounds nuw i8, ptr %0, i64 24
  %11 = load i8, ptr %10, align 8, !range !4, !noundef !5
  %12 = trunc nuw i8 %11 to i1
  br i1 %12, label %31, label %13

13:                                               ; preds = %9
  %14 = getelementptr inbounds nuw i8, ptr %0, i64 16
  %15 = load ptr, ptr %14, align 8
  %16 = tail call ptr @GetPortalByName(ptr noundef %15) #11
  %.not16 = icmp eq ptr %16, null
  br i1 %.not16, label %31, label %17

17:                                               ; preds = %13
  %18 = getelementptr inbounds nuw i8, ptr %16, i64 144
  %19 = load ptr, ptr %18, align 8
  %20 = icmp ne ptr %19, null
  br label %31

21:                                               ; preds = %1
  %22 = getelementptr inbounds nuw i8, ptr %0, i64 8
  %23 = load ptr, ptr %22, align 8
  %24 = tail call ptr @FetchPreparedStatement(ptr noundef %23, i1 noundef zeroext false) #11
  %.not = icmp eq ptr %24, null
  br i1 %.not, label %31, label %25

25:                                               ; preds = %21
  %26 = getelementptr inbounds nuw i8, ptr %24, i64 64
  %27 = load ptr, ptr %26, align 8
  %28 = getelementptr inbounds nuw i8, ptr %27, i64 72
  %29 = load ptr, ptr %28, align 8
  %.not15 = icmp ne ptr %29, null
  br label %31

30:                                               ; preds = %1
  br label %31

31:                                               ; preds = %1, %1, %21, %25, %17, %9, %13, %30, %3
  %.0 = phi i1 [ false, %30 ], [ %8, %3 ], [ %20, %17 ], [ false, %9 ], [ false, %13 ], [ false, %21 ], [ %.not15, %25 ], [ true, %1 ], [ true, %1 ]
  ret i1 %.0
}